; Function Attrs: nofree norecurse nosync nounwind memory(argmem: readwrite) uwtable
define void @Acec_MatchBoxesSort(ptr noundef captures(none) %0, i32 noundef %1, ptr noundef readonly captures(none) %2) local_unnamed_addr #5 {
  %4 = icmp sgt i32 %1, 1
  br i1 %4, label %.lr.ph29.preheader, label %._crit_edge30

.lr.ph29.preheader:                               ; preds = %3
  %5 = add nsw i32 %1, -1
  %wide.trip.count37 = zext nneg i32 %5 to i64
  %wide.trip.count = zext nneg i32 %1 to i64
  br label %.lr.ph.preheader

.lr.ph.preheader:                                 ; preds = %._crit_edge, %.lr.ph29.preheader
  %indvars.iv34 = phi i64 [ 0, %.lr.ph29.preheader ], [ %indvars.iv.next35, %._crit_edge ]
  %indvars.iv = phi i64 [ 1, %.lr.ph29.preheader ], [ %indvars.iv.next, %._crit_edge ]
  %indvars.iv.next35 = add nuw nsw i64 %indvars.iv34, 1
  %6 = trunc nuw nsw i64 %indvars.iv34 to i32
  br label %.lr.ph

.lr.ph:                                           ; preds = %.lr.ph.preheader, %.lr.ph
  %indvars.iv31 = phi i64 [ %indvars.iv, %.lr.ph.preheader ], [ %indvars.iv.next32, %.lr.ph ]
  %.02326 = phi i32 [ %6, %.lr.ph.preheader ], [ %spec.select, %.lr.ph ]
  %7 = getelementptr inbounds nuw i32, ptr %0, i64 %indvars.iv31
  %8 = load i32, ptr %7, align 4
  %9 = ashr i32 %8, 1
  %10 = sext i32 %9 to i64
  %11 = getelementptr inbounds i32, ptr %2, i64 %10
  %12 = load i32, ptr %11, align 4
  %13 = and i32 %8, 1
  %14 = xor i32 %12, %13
  %15 = sext i32 %.02326 to i64
  %16 = getelementptr inbounds i32, ptr %0, i64 %15
  %17 = load i32, ptr %16, align 4
  %18 = ashr i32 %17, 1
  %19 = sext i32 %18 to i64
  %20 = getelementptr inbounds i32, ptr %2, i64 %19
  %21 = load i32, ptr %20, align 4
  %22 = and i32 %17, 1
  %23 = xor i32 %21, %22
  %24 = icmp sgt i32 %14, %23
  %25 = trunc nuw nsw i64 %indvars.iv31 to i32
  %spec.select = select i1 %24, i32 %25, i32 %.02326
  %indvars.iv.next32 = add nuw nsw i64 %indvars.iv31, 1
  %exitcond.not = icmp eq i64 %indvars.iv.next32, %wide.trip.count
  br i1 %exitcond.not, label %._crit_edge, label %.lr.ph, !llvm.loop !17

._crit_edge:                                      ; preds = %.lr.ph
  %26 = getelementptr inbounds nuw i32, ptr %0, i64 %indvars.iv34
  %27 = load i32, ptr %26, align 4
  %28 = sext i32 %spec.select to i64
  %29 = getelementptr inbounds i32, ptr %0, i64 %28
  %30 = load i32, ptr %29, align 4
  store i32 %30, ptr %26, align 4
  store i32 %27, ptr %29, align 4
  %indvars.iv.next = add nuw nsw i64 %indvars.iv, 1
  %exitcond38.not = icmp eq i64 %indvars.iv.next35, %wide.trip.count37
  br i1 %exitcond38.not, label %._crit_edge30, label %.lr.ph.preheader, !llvm.loop !18

._crit_edge30:                                    ; preds = %._crit_edge, %3
  ret void
}